; Function Attrs: mustprogress nounwind uwtable
define dso_local noundef zeroext i1 @_ZN4llvm20SampleProfileMatcher18functionHasProfileERKNS_10sampleprof10FunctionIdERPNS_8FunctionE(ptr noundef nonnull align 8 dereferenceable(432) %0, ptr noundef nonnull align 8 dereferenceable(16) %1, ptr noundef nonnull align 8 captures(none) dereferenceable(8) initializes((0, 8)) %2) local_unnamed_addr #0 align 2 {
  store ptr null, ptr %2, align 8
  %4 = getelementptr inbounds nuw i8, ptr %0, i64 272
  %5 = tail call ptr @_ZN4llvm10sampleprof10HashKeyMapISt13unordered_mapNS0_10FunctionIdEPNS_8FunctionEJEE4findERKS3_(ptr noundef nonnull align 8 dereferenceable(56) %4, ptr noundef nonnull align 8 dereferenceable(16) %1)
  %.not7 = icmp eq ptr %5, null
  br i1 %.not7, label %._crit_edge, label %6

._crit_edge:                                      ; preds = %3
  %.pre = load ptr, ptr %2, align 8
  br label %9

6:                                                ; preds = %3
  %7 = getelementptr inbounds nuw i8, ptr %5, i64 16
  %8 = load ptr, ptr %7, align 8
  store ptr %8, ptr %2, align 8
  br label %9

9:                                                ; preds = %._crit_edge, %6
  %10 = phi ptr [ %.pre, %._crit_edge ], [ %8, %6 ]
  %.not = icmp eq ptr %10, null
  ret i1 %.not
}